target datalayout = "e-m:e-p270:32:32-p271:32:32-p272:64:64-i64:64-i128:128-f80:128-n8:16:32:64-S128"
target triple = "x86_64-pc-linux-gnu"

%struct.IndexTupleData = type { %struct.ItemPointerData, i16 }
%struct.ItemPointerData = type { %struct.BlockIdData, i16 }
%struct.BlockIdData = type { i16, i16 }
%struct.PageHeaderData = type { %struct.PageXLogRecPtr, i16, i16, i16, i16, i16, i16, i32, [0 x %struct.ItemIdData] }
%struct.PageXLogRecPtr = type { i32, i32 }
%struct.ItemIdData = type { i32 }
%struct.BTPageOpaqueData = type { i32, i32, i32, i16, i16 }
%struct.BTStackData = type { i32, i16, ptr }

@LocalBufferBlockPointers = external global ptr, align 8
@BufferBlocks = external global ptr, align 8

; Function Attrs: inlinehint nounwind uwtable
define internal i32 @BlockIdGetBlockNumber(ptr noundef %0) #3 {
  %2 = alloca ptr, align 8
  store ptr %0, ptr %2, align 8
  %3 = load ptr, ptr %2, align 8
  %4 = getelementptr inbounds nuw %struct.BlockIdData, ptr %3, i32 0, i32 0
  %5 = load i16, ptr %4, align 2
  %6 = zext i16 %5 to i32
  %7 = shl i32 %6, 16
  %8 = load ptr, ptr %2, align 8
  %9 = getelementptr inbounds nuw %struct.BlockIdData, ptr %8, i32 0, i32 1
  %10 = load i16, ptr %9, align 2
  %11 = zext i16 %10 to i32
  %12 = or i32 %7, %11
  ret i32 %12
}

; Function Attrs: inlinehint nounwind uwtable
define internal i32 @ItemPointerGetBlockNumberNoCheck(ptr noundef %0) #3 {
  %2 = alloca ptr, align 8
  store ptr %0, ptr %2, align 8
  %3 = load ptr, ptr %2, align 8
  %4 = getelementptr inbounds nuw %struct.ItemPointerData, ptr %3, i32 0, i32 0
  %5 = call i32 @BlockIdGetBlockNumber(ptr noundef %4)
  ret i32 %5
}

; Function Attrs: inlinehint nounwind uwtable
define internal ptr @BufferGetBlock(i32 noundef %0) #3 {
  %2 = alloca ptr, align 8
  %3 = alloca i32, align 4
  store i32 %0, ptr %3, align 4
  %4 = load i32, ptr %3, align 4
  %5 = icmp slt i32 %4, 0
  br i1 %5, label %6, label %14

6:                                                ; preds = %1
  %7 = load ptr, ptr @LocalBufferBlockPointers, align 8
  %8 = load i32, ptr %3, align 4
  %9 = sub i32 0, %8
  %10 = sub i32 %9, 1
  %11 = sext i32 %10 to i64
  %12 = getelementptr inbounds ptr, ptr %7, i64 %11
  %13 = load ptr, ptr %12, align 8
  store ptr %13, ptr %2, align 8
  br label %21

14:                                               ; preds = %1
  %15 = load ptr, ptr @BufferBlocks, align 8
  %16 = load i32, ptr %3, align 4
  %17 = sub i32 %16, 1
  %18 = sext i32 %17 to i64
  %19 = mul i64 %18, 8192
  %20 = getelementptr inbounds nuw i8, ptr %15, i64 %19
  store ptr %20, ptr %2, align 8
  br label %21

21:                                               ; preds = %14, %6
  %22 = load ptr, ptr %2, align 8
  ret ptr %22
}

; Function Attrs: inlinehint nounwind uwtable
define internal i32 @BTreeTupleGetDownLink(ptr noundef %0) #3 {
  %2 = alloca ptr, align 8
  store ptr %0, ptr %2, align 8
  %3 = load ptr, ptr %2, align 8
  %4 = getelementptr inbounds nuw %struct.IndexTupleData, ptr %3, i32 0, i32 0
  %5 = call i32 @ItemPointerGetBlockNumberNoCheck(ptr noundef %4)
  ret i32 %5
}

; Function Attrs: inlinehint nounwind uwtable
define internal ptr @PageGetItem(ptr noundef %0, ptr noundef %1) #3 {
  %3 = alloca ptr, align 8
  %4 = alloca ptr, align 8
  store ptr %0, ptr %3, align 8
  store ptr %1, ptr %4, align 8
  %5 = load ptr, ptr %3, align 8
  %6 = load ptr, ptr %4, align 8
  %7 = load i32, ptr %6, align 4
  %8 = and i32 %7, 32767
  %9 = sext i32 %8 to i64
  %10 = getelementptr inbounds i8, ptr %5, i64 %9
  ret ptr %10
}

; Function Attrs: inlinehint nounwind uwtable
define internal ptr @PageGetItemId(ptr noundef %0, i16 noundef zeroext %1) #3 {
  %3 = alloca ptr, align 8
  %4 = alloca i16, align 2
  store ptr %0, ptr %3, align 8
  store i16 %1, ptr %4, align 2
  %5 = load ptr, ptr %3, align 8
  %6 = getelementptr inbounds nuw %struct.PageHeaderData, ptr %5, i32 0, i32 8
  %7 = load i16, ptr %4, align 2
  %8 = zext i16 %7 to i32
  %9 = sub i32 %8, 1
  %10 = sext i32 %9 to i64
  %11 = getelementptr inbounds [0 x %struct.ItemIdData], ptr %6, i64 0, i64 %10
  ret ptr %11
}

; Function Attrs: inlinehint nounwind uwtable
define internal zeroext i16 @PageGetMaxOffsetNumber(ptr noundef %0) #3 {
  %2 = alloca i16, align 2
  %3 = alloca ptr, align 8
  %4 = alloca ptr, align 8
  %5 = alloca i32, align 4
  store ptr %0, ptr %3, align 8
  call void @llvm.lifetime.start.p0(i64 8, ptr %4) #8
  %6 = load ptr, ptr %3, align 8
  store ptr %6, ptr %4, align 8
  %7 = load ptr, ptr %4, align 8
  %8 = getelementptr inbounds nuw %struct.PageHeaderData, ptr %7, i32 0, i32 3
  %9 = load i16, ptr %8, align 4
  %10 = zext i16 %9 to i64
  %11 = icmp ule i64 %10, 24
  br i1 %11, label %12, label %13

12:                                               ; preds = %1
  store i16 0, ptr %2, align 2
  store i32 1, ptr %5, align 4
  br label %21

13:                                               ; preds = %1
  %14 = load ptr, ptr %4, align 8
  %15 = getelementptr inbounds nuw %struct.PageHeaderData, ptr %14, i32 0, i32 3
  %16 = load i16, ptr %15, align 4
  %17 = zext i16 %16 to i64
  %18 = sub i64 %17, 24
  %19 = udiv i64 %18, 4
  %20 = trunc i64 %19 to i16
  store i16 %20, ptr %2, align 2
  store i32 1, ptr %5, align 4
  br label %21

21:                                               ; preds = %13, %12
  call void @llvm.lifetime.end.p0(i64 8, ptr %4) #8
  %22 = load i16, ptr %2, align 2
  ret i16 %22
}

; Function Attrs: inlinehint nounwind uwtable
define internal void @PageValidateSpecialPointer(ptr noundef %0) #3 {
  %2 = alloca ptr, align 8
  store ptr %0, ptr %2, align 8
  ret void
}

; Function Attrs: inlinehint nounwind uwtable
define internal ptr @BufferGetPage(i32 noundef %0) #3 {
  %2 = alloca i32, align 4
  store i32 %0, ptr %2, align 4
  %3 = load i32, ptr %2, align 4
  %4 = call ptr @BufferGetBlock(i32 noundef %3)
  ret ptr %4
}

; Function Attrs: nounwind uwtable
define dso_local i32 @_bt_getstackbuf(ptr noundef %0, ptr noundef %1, ptr noundef %2, i32 noundef %3) #0 {
  %5 = alloca i32, align 4
  %6 = alloca ptr, align 8
  %7 = alloca ptr, align 8
  %8 = alloca ptr, align 8
  %9 = alloca i32, align 4
  %10 = alloca i32, align 4
  %11 = alloca i16, align 2
  %12 = alloca i32, align 4
  %13 = alloca ptr, align 8
  %14 = alloca ptr, align 8
  %15 = alloca i32, align 4
  %16 = alloca i16, align 2
  %17 = alloca i16, align 2
  %18 = alloca i16, align 2
  %19 = alloca ptr, align 8
  %20 = alloca ptr, align 8
  store ptr %0, ptr %6, align 8
  store ptr %1, ptr %7, align 8
  store ptr %2, ptr %8, align 8
  store i32 %3, ptr %9, align 4
  call void @llvm.lifetime.start.p0(i64 4, ptr %10) #8
  call void @llvm.lifetime.start.p0(i64 2, ptr %11) #8
  %21 = load ptr, ptr %8, align 8
  %22 = getelementptr inbounds nuw %struct.BTStackData, ptr %21, i32 0, i32 0
  %23 = load i32, ptr %22, align 8
  store i32 %23, ptr %10, align 4
  %24 = load ptr, ptr %8, align 8
  %25 = getelementptr inbounds nuw %struct.BTStackData, ptr %24, i32 0, i32 1
  %26 = load i16, ptr %25, align 4
  store i16 %26, ptr %11, align 2
  br label %27

27:                                               ; preds = %177, %175, %4
  call void @llvm.lifetime.start.p0(i64 4, ptr %12) #8
  call void @llvm.lifetime.start.p0(i64 8, ptr %13) #8
  call void @llvm.lifetime.start.p0(i64 8, ptr %14) #8
  %28 = load ptr, ptr %6, align 8
  %29 = load i32, ptr %10, align 4
  %30 = call i32 @_bt_getbuf(ptr noundef %28, i32 noundef %29, i32 noundef 2)
  store i32 %30, ptr %12, align 4
  %31 = load i32, ptr %12, align 4
  %32 = call ptr @BufferGetPage(i32 noundef %31)
  store ptr %32, ptr %13, align 8
  %33 = load ptr, ptr %13, align 8
  call void @PageValidateSpecialPointer(ptr noundef %33)
  %34 = load ptr, ptr %13, align 8
  %35 = load ptr, ptr %13, align 8
  %36 = getelementptr inbounds nuw %struct.PageHeaderData, ptr %35, i32 0, i32 5
  %37 = load i16, ptr %36, align 4
  %38 = zext i16 %37 to i32
  %39 = sext i32 %38 to i64
  %40 = getelementptr inbounds i8, ptr %34, i64 %39
  store ptr %40, ptr %14, align 8
  %41 = load ptr, ptr %14, align 8
  %42 = getelementptr inbounds nuw %struct.BTPageOpaqueData, ptr %41, i32 0, i32 3
  %43 = load i16, ptr %42, align 4
  %44 = zext i16 %43 to i32
  %45 = and i32 %44, 128
  %46 = icmp ne i32 %45, 0
  br i1 %46, label %47, label %54

47:                                               ; preds = %27
  %48 = load ptr, ptr %6, align 8
  %49 = load ptr, ptr %7, align 8
  %50 = load i32, ptr %12, align 4
  %51 = load ptr, ptr %8, align 8
  %52 = getelementptr inbounds nuw %struct.BTStackData, ptr %51, i32 0, i32 2
  %53 = load ptr, ptr %52, align 8
  call void @_bt_finish_split(ptr noundef %48, ptr noundef %49, i32 noundef %50, ptr noundef %53)
  store i32 3, ptr %15, align 4
  br label %175

54:                                               ; preds = %27
  %55 = load ptr, ptr %14, align 8
  %56 = getelementptr inbounds nuw %struct.BTPageOpaqueData, ptr %55, i32 0, i32 3
  %57 = load i16, ptr %56, align 4
  %58 = zext i16 %57 to i32
  %59 = and i32 %58, 20
  %60 = icmp ne i32 %59, 0
  br i1 %60, label %161, label %61

61:                                               ; preds = %54
  call void @llvm.lifetime.start.p0(i64 2, ptr %16) #8
  call void @llvm.lifetime.start.p0(i64 2, ptr %17) #8
  call void @llvm.lifetime.start.p0(i64 2, ptr %18) #8
  call void @llvm.lifetime.start.p0(i64 8, ptr %19) #8
  call void @llvm.lifetime.start.p0(i64 8, ptr %20) #8
  %62 = load ptr, ptr %14, align 8
  %63 = getelementptr inbounds nuw %struct.BTPageOpaqueData, ptr %62, i32 0, i32 1
  %64 = load i32, ptr %63, align 4
  %65 = icmp eq i32 %64, 0
  %66 = select i1 %65, i32 1, i32 2
  %67 = trunc i32 %66 to i16
  store i16 %67, ptr %17, align 2
  %68 = load ptr, ptr %13, align 8
  %69 = call zeroext i16 @PageGetMaxOffsetNumber(ptr noundef %68)
  store i16 %69, ptr %18, align 2
  %70 = load i16, ptr %11, align 2
  %71 = zext i16 %70 to i32
  %72 = load i16, ptr %17, align 2
  %73 = zext i16 %72 to i32
  %74 = icmp slt i32 %71, %73
  br i1 %74, label %75, label %77

75:                                               ; preds = %61
  %76 = load i16, ptr %17, align 2
  store i16 %76, ptr %11, align 2
  br label %77

77:                                               ; preds = %75, %61
  %78 = load i16, ptr %11, align 2
  %79 = zext i16 %78 to i32
  %80 = load i16, ptr %18, align 2
  %81 = zext i16 %80 to i32
  %82 = icmp sgt i32 %79, %81
  br i1 %82, label %83, label %88

83:                                               ; preds = %77
  %84 = load i16, ptr %18, align 2
  %85 = zext i16 %84 to i32
  %86 = add i32 1, %85
  %87 = trunc i32 %86 to i16
  store i16 %87, ptr %11, align 2
  br label %88

88:                                               ; preds = %83, %77
  %89 = load i16, ptr %11, align 2
  store i16 %89, ptr %16, align 2
  br label %90

90:                                               ; preds = %116, %88
  %91 = load i16, ptr %16, align 2
  %92 = zext i16 %91 to i32
  %93 = load i16, ptr %18, align 2
  %94 = zext i16 %93 to i32
  %95 = icmp sle i32 %92, %94
  br i1 %95, label %96, label %121

96:                                               ; preds = %90
  %97 = load ptr, ptr %13, align 8
  %98 = load i16, ptr %16, align 2
  %99 = call ptr @PageGetItemId(ptr noundef %97, i16 noundef zeroext %98)
  store ptr %99, ptr %19, align 8
  %100 = load ptr, ptr %13, align 8
  %101 = load ptr, ptr %19, align 8
  %102 = call ptr @PageGetItem(ptr noundef %100, ptr noundef %101)
  store ptr %102, ptr %20, align 8
  %103 = load ptr, ptr %20, align 8
  %104 = call i32 @BTreeTupleGetDownLink(ptr noundef %103)
  %105 = load i32, ptr %9, align 4
  %106 = icmp eq i32 %104, %105
  br i1 %106, label %107, label %115

107:                                              ; preds = %96
  %108 = load i32, ptr %10, align 4
  %109 = load ptr, ptr %8, align 8
  %110 = getelementptr inbounds nuw %struct.BTStackData, ptr %109, i32 0, i32 0
  store i32 %108, ptr %110, align 8
  %111 = load i16, ptr %16, align 2
  %112 = load ptr, ptr %8, align 8
  %113 = getelementptr inbounds nuw %struct.BTStackData, ptr %112, i32 0, i32 1
  store i16 %111, ptr %113, align 4
  %114 = load i32, ptr %12, align 4
  store i32 %114, ptr %5, align 4
  store i32 1, ptr %15, align 4
  br label %158

115:                                              ; preds = %96
  br label %116

116:                                              ; preds = %115
  %117 = load i16, ptr %16, align 2
  %118 = zext i16 %117 to i32
  %119 = add i32 1, %118
  %120 = trunc i32 %119 to i16
  store i16 %120, ptr %16, align 2
  br label %90, !llvm.loop !8

121:                                              ; preds = %90
  %122 = load i16, ptr %11, align 2
  %123 = zext i16 %122 to i32
  %124 = add i32 -1, %123
  %125 = trunc i32 %124 to i16
  store i16 %125, ptr %16, align 2
  br label %126

126:                                              ; preds = %152, %121
  %127 = load i16, ptr %16, align 2
  %128 = zext i16 %127 to i32
  %129 = load i16, ptr %17, align 2
  %130 = zext i16 %129 to i32
  %131 = icmp sge i32 %128, %130
  br i1 %131, label %132, label %157

132:                                              ; preds = %126
  %133 = load ptr, ptr %13, align 8
  %134 = load i16, ptr %16, align 2
  %135 = call ptr @PageGetItemId(ptr noundef %133, i16 noundef zeroext %134)
  store ptr %135, ptr %19, align 8
  %136 = load ptr, ptr %13, align 8
  %137 = load ptr, ptr %19, align 8
  %138 = call ptr @PageGetItem(ptr noundef %136, ptr noundef %137)
  store ptr %138, ptr %20, align 8
  %139 = load ptr, ptr %20, align 8
  %140 = call i32 @BTreeTupleGetDownLink(ptr noundef %139)
  %141 = load i32, ptr %9, align 4
  %142 = icmp eq i32 %140, %141
  br i1 %142, label %143, label %151

143:                                              ; preds = %132
  %144 = load i32, ptr %10, align 4
  %145 = load ptr, ptr %8, align 8
  %146 = getelementptr inbounds nuw %struct.BTStackData, ptr %145, i32 0, i32 0
  store i32 %144, ptr %146, align 8
  %147 = load i16, ptr %16, align 2
  %148 = load ptr, ptr %8, align 8
  %149 = getelementptr inbounds nuw %struct.BTStackData, ptr %148, i32 0, i32 1
  store i16 %147, ptr %149, align 4
  %150 = load i32, ptr %12, align 4
  store i32 %150, ptr %5, align 4
  store i32 1, ptr %15, align 4
  br label %158

151:                                              ; preds = %132
  br label %152

152:                                              ; preds = %151
  %153 = load i16, ptr %16, align 2
  %154 = zext i16 %153 to i32
  %155 = add i32 -1, %154
  %156 = trunc i32 %155 to i16
  store i16 %156, ptr %16, align 2
  br label %126, !llvm.loop !9

157:                                              ; preds = %126
  store i32 0, ptr %15, align 4
  br label %158

158:                                              ; preds = %157, %143, %107
  call void @llvm.lifetime.end.p0(i64 8, ptr %20) #8
  call void @llvm.lifetime.end.p0(i64 8, ptr %19) #8
  call void @llvm.lifetime.end.p0(i64 2, ptr %18) #8
  call void @llvm.lifetime.end.p0(i64 2, ptr %17) #8
  call void @llvm.lifetime.end.p0(i64 2, ptr %16) #8
  %159 = load i32, ptr %15, align 4
  switch i32 %159, label %175 [
    i32 0, label %160
  ]

160:                                              ; preds = %158
  br label %161

161:                                              ; preds = %160, %54
  %162 = load ptr, ptr %14, align 8
  %163 = getelementptr inbounds nuw %struct.BTPageOpaqueData, ptr %162, i32 0, i32 1
  %164 = load i32, ptr %163, align 4
  %165 = icmp eq i32 %164, 0
  br i1 %165, label %166, label %169

166:                                              ; preds = %161
  %167 = load ptr, ptr %6, align 8
  %168 = load i32, ptr %12, align 4
  call void @_bt_relbuf(ptr noundef %167, i32 noundef %168)
  store i32 0, ptr %5, align 4
  store i32 1, ptr %15, align 4
  br label %175

169:                                              ; preds = %161
  %170 = load ptr, ptr %14, align 8
  %171 = getelementptr inbounds nuw %struct.BTPageOpaqueData, ptr %170, i32 0, i32 1
  %172 = load i32, ptr %171, align 4
  store i32 %172, ptr %10, align 4
  store i16 0, ptr %11, align 2
  %173 = load ptr, ptr %6, align 8
  %174 = load i32, ptr %12, align 4
  call void @_bt_relbuf(ptr noundef %173, i32 noundef %174)
  store i32 0, ptr %15, align 4
  br label %175

175:                                              ; preds = %169, %166, %158, %47
  call void @llvm.lifetime.end.p0(i64 8, ptr %14) #8
  call void @llvm.lifetime.end.p0(i64 8, ptr %13) #8
  call void @llvm.lifetime.end.p0(i64 4, ptr %12) #8
  %176 = load i32, ptr %15, align 4
  switch i32 %176, label %178 [
    i32 0, label %177
    i32 3, label %27
  ]

177:                                              ; preds = %175
  br label %27

178:                                              ; preds = %175
  call void @llvm.lifetime.end.p0(i64 2, ptr %11) #8
  call void @llvm.lifetime.end.p0(i64 4, ptr %10) #8
  %179 = load i32, ptr %5, align 4
  ret i32 %179
}