; Function Attrs: nounwind uwtable
define dso_local i32 @_bt_getstackbuf(ptr noundef %0, ptr noundef %1, ptr noundef captures(none) %2, i32 noundef %3) local_unnamed_addr #0 {
  %5 = load i32, ptr %2, align 8
  %6 = getelementptr inbounds nuw i8, ptr %2, i64 4
  %7 = load i16, ptr %6, align 4
  %8 = getelementptr inbounds nuw i8, ptr %2, i64 8
  br label %.outer

.outer:                                           ; preds = %.loopexit, %4
  %.066.ph = phi i16 [ 0, %.loopexit ], [ %7, %4 ]
  %.060.ph = phi i32 [ %37, %.loopexit ], [ %5, %4 ]
  br label %9

9:                                                ; preds = %.outer, %32
  %10 = tail call i32 @_bt_getbuf(ptr noundef %0, i32 noundef %.060.ph, i32 noundef 2) #9
  %11 = icmp slt i32 %10, 0
  br i1 %11, label %12, label %18

12:                                               ; preds = %9
  %13 = load ptr, ptr @LocalBufferBlockPointers, align 8
  %14 = xor i32 %10, -1
  %15 = zext nneg i32 %14 to i64
  %16 = getelementptr inbounds nuw ptr, ptr %13, i64 %15
  %17 = load ptr, ptr %16, align 8
  br label %BufferGetPage.exit

18:                                               ; preds = %9
  %19 = load ptr, ptr @BufferBlocks, align 8
  %20 = add nsw i32 %10, -1
  %21 = sext i32 %20 to i64
  %22 = shl nsw i64 %21, 13
  %23 = getelementptr inbounds nuw i8, ptr %19, i64 %22
  br label %BufferGetPage.exit

BufferGetPage.exit:                               ; preds = %12, %18
  %.0.i.i = phi ptr [ %17, %12 ], [ %23, %18 ]
  %24 = getelementptr inbounds nuw i8, ptr %.0.i.i, i64 16
  %25 = load i16, ptr %24, align 4
  %26 = zext i16 %25 to i64
  %27 = getelementptr inbounds nuw i8, ptr %.0.i.i, i64 %26
  %28 = getelementptr inbounds nuw i8, ptr %27, i64 12
  %29 = load i16, ptr %28, align 4
  %30 = zext i16 %29 to i32
  %31 = and i32 %30, 128
  %.not = icmp eq i32 %31, 0
  br i1 %.not, label %34, label %32

32:                                               ; preds = %BufferGetPage.exit
  %33 = load ptr, ptr %8, align 8
  tail call void @_bt_finish_split(ptr noundef %0, ptr noundef %1, i32 noundef %10, ptr noundef %33)
  br label %9

34:                                               ; preds = %BufferGetPage.exit
  %35 = and i32 %30, 20
  %.not74 = icmp eq i32 %35, 0
  %36 = getelementptr inbounds nuw i8, ptr %27, i64 4
  %37 = load i32, ptr %36, align 4
  br i1 %.not74, label %38, label %.loopexit

38:                                               ; preds = %34
  %39 = icmp eq i32 %37, 0
  %40 = select i1 %39, i16 1, i16 2
  %41 = getelementptr i8, ptr %.0.i.i, i64 12
  %.val = load i16, ptr %41, align 4
  %42 = icmp ult i16 %.val, 25
  %43 = zext i16 %.val to i32
  %44 = add nuw nsw i32 %43, 262120
  %45 = lshr i32 %44, 2
  %46 = trunc i32 %45 to i16
  %.0.i = select i1 %42, i16 0, i16 %46
  %spec.select = tail call i16 @llvm.umax.i16(i16 %.066.ph, i16 %40)
  %47 = icmp ugt i16 %spec.select, %.0.i
  %48 = add nsw i16 %.0.i, 1
  %.4 = select i1 %47, i16 %48, i16 %spec.select
  %.not7598 = icmp ugt i16 %.4, %.0.i
  br i1 %.not7598, label %.preheader, label %.lr.ph

.lr.ph:                                           ; preds = %38
  %49 = getelementptr inbounds nuw i8, ptr %.0.i.i, i64 24
  br label %51

.preheader:                                       ; preds = %64, %38
  %50 = getelementptr inbounds nuw i8, ptr %.0.i.i, i64 24
  br label %66

51:                                               ; preds = %.lr.ph, %64
  %.06299 = phi i16 [ %.4, %.lr.ph ], [ %65, %64 ]
  %52 = zext i16 %.06299 to i64
  %53 = add nsw i64 %52, -1
  %54 = getelementptr inbounds [0 x %struct.ItemIdData], ptr %49, i64 0, i64 %53
  %.val77 = load i32, ptr %54, align 4
  %55 = and i32 %.val77, 32767
  %56 = zext nneg i32 %55 to i64
  %57 = getelementptr inbounds nuw i8, ptr %.0.i.i, i64 %56
  %.val79 = load i16, ptr %57, align 2
  %58 = getelementptr i8, ptr %57, i64 2
  %.val80 = load i16, ptr %58, align 2
  %59 = zext i16 %.val79 to i32
  %60 = shl nuw i32 %59, 16
  %61 = zext i16 %.val80 to i32
  %62 = or disjoint i32 %60, %61
  %63 = icmp eq i32 %62, %3
  br i1 %63, label %.thread.sink.split, label %64

64:                                               ; preds = %51
  %65 = add i16 %.06299, 1
  %.not75 = icmp ugt i16 %65, %.0.i
  br i1 %.not75, label %.preheader, label %51, !llvm.loop !10

66:                                               ; preds = %.preheader, %67
  %.163.in = phi i16 [ %.163, %67 ], [ %.4, %.preheader ]
  %.163 = add i16 %.163.in, -1
  %.not76 = icmp ult i16 %.163, %40
  br i1 %.not76, label %.loopexit, label %67

67:                                               ; preds = %66
  %68 = zext i16 %.163 to i64
  %69 = add nsw i64 %68, -1
  %70 = getelementptr inbounds [0 x %struct.ItemIdData], ptr %50, i64 0, i64 %69
  %.val78 = load i32, ptr %70, align 4
  %71 = and i32 %.val78, 32767
  %72 = zext nneg i32 %71 to i64
  %73 = getelementptr inbounds nuw i8, ptr %.0.i.i, i64 %72
  %.val81 = load i16, ptr %73, align 2
  %74 = getelementptr i8, ptr %73, i64 2
  %.val82 = load i16, ptr %74, align 2
  %75 = zext i16 %.val81 to i32
  %76 = shl nuw i32 %75, 16
  %77 = zext i16 %.val82 to i32
  %78 = or disjoint i32 %76, %77
  %79 = icmp eq i32 %78, %3
  br i1 %79, label %.thread.sink.split, label %66, !llvm.loop !11

.loopexit:                                        ; preds = %66, %34
  %80 = icmp eq i32 %37, 0
  tail call void @_bt_relbuf(ptr noundef %0, i32 noundef %10) #9
  br i1 %80, label %.thread, label %.outer

.thread.sink.split:                               ; preds = %51, %67
  %.163.lcssa107.sink = phi i16 [ %.163, %67 ], [ %.06299, %51 ]
  store i32 %.060.ph, ptr %2, align 8
  store i16 %.163.lcssa107.sink, ptr %6, align 4
  br label %.thread

.thread:                                          ; preds = %.loopexit, %.thread.sink.split
  %.1.ph = phi i32 [ %10, %.thread.sink.split ], [ 0, %.loopexit ]
  ret i32 %.1.ph
}